; ModuleID = 'source-C-CXX/42/1437.cpp'
source_filename = "source-C-CXX/42/1437.cpp"
target datalayout = "e-m:e-p270:32:32-p271:32:32-p272:64:64-i64:64-f80:128-n8:16:32:64-S128"
target triple = "x86_64-pc-linux-gnu"

%"class.std::ios_base::Init" = type { i8 }
%"class.std::basic_istream" = type { i32 (...)**, i64, %"class.std::basic_ios" }
%"class.std::basic_ios" = type { %"class.std::ios_base", %"class.std::basic_ostream"*, i8, i8, %"class.std::basic_streambuf"*, %"class.std::ctype"*, %"class.std::num_put"*, %"class.std::num_get"* }
%"class.std::ios_base" = type { i32 (...)**, i64, i64, i32, i32, i32, %"struct.std::ios_base::_Callback_list"*, %"struct.std::ios_base::_Words", [8 x %"struct.std::ios_base::_Words"], i32, %"struct.std::ios_base::_Words"*, %"class.std::locale" }
%"struct.std::ios_base::_Callback_list" = type { %"struct.std::ios_base::_Callback_list"*, void (i32, %"class.std::ios_base"*, i32)*, i32, i32 }
%"struct.std::ios_base::_Words" = type { i8*, i64 }
%"class.std::locale" = type { %"class.std::locale::_Impl"* }
%"class.std::locale::_Impl" = type { i32, %"class.std::locale::facet"**, i64, %"class.std::locale::facet"**, i8** }
%"class.std::locale::facet" = type <{ i32 (...)**, i32, [4 x i8] }>
%"class.std::basic_ostream" = type { i32 (...)**, %"class.std::basic_ios" }
%"class.std::basic_streambuf" = type { i32 (...)**, i8*, i8*, i8*, i8*, i8*, i8*, %"class.std::locale" }
%"class.std::ctype" = type <{ %"class.std::locale::facet.base", [4 x i8], %struct.__locale_struct*, i8, [7 x i8], i32*, i32*, i16*, i8, [256 x i8], [256 x i8], i8, [6 x i8] }>
%"class.std::locale::facet.base" = type <{ i32 (...)**, i32 }>
%struct.__locale_struct = type { [13 x %struct.__locale_data*], i16*, i32*, i32*, [13 x i8*] }
%struct.__locale_data = type opaque
%"class.std::num_put" = type { %"class.std::locale::facet.base", [4 x i8] }
%"class.std::num_get" = type { %"class.std::locale::facet.base", [4 x i8] }

@_ZStL8__ioinit = internal global %"class.std::ios_base::Init" zeroinitializer, align 1
@__dso_handle = external hidden global i8
@_ZSt3cin = external global %"class.std::basic_istream", align 8
@_ZSt4cout = external global %"class.std::basic_ostream", align 8
@.str = private unnamed_addr constant [2 x i8] c" \00", align 1
@llvm.global_ctors = appending global [1 x { i32, void ()*, i8* }] [{ i32, void ()*, i8* } { i32 65535, void ()* @_GLOBAL__sub_I_1437.cpp, i8* null }]

declare void @_ZNSt8ios_base4InitC1Ev(%"class.std::ios_base::Init"* nonnull align 1 dereferenceable(1)) unnamed_addr #0

; Function Attrs: nounwind
declare void @_ZNSt8ios_base4InitD1Ev(%"class.std::ios_base::Init"* nonnull align 1 dereferenceable(1)) unnamed_addr #1

; Function Attrs: nofree nounwind
declare i32 @__cxa_atexit(void (i8*)*, i8*, i8*) local_unnamed_addr #2

; Function Attrs: mustprogress nofree nounwind sspstrong uwtable
define dso_local i32 @_Z10checkprimei(i32 %0) local_unnamed_addr #3 {
  %2 = sitofp i32 %0 to double
  %3 = tail call double @sqrt(double %2) #9
  %4 = fcmp ult double %3, 2.000000e+00
  br i1 %4, label %16, label %5

5:                                                ; preds = %1, %5
  %6 = phi i32 [ %11, %5 ], [ 0, %1 ]
  %7 = phi i32 [ %12, %5 ], [ 2, %1 ]
  %8 = srem i32 %0, %7
  %9 = icmp eq i32 %8, 0
  %10 = zext i1 %9 to i32
  %11 = add nuw nsw i32 %6, %10
  %12 = add nuw nsw i32 %7, 1
  %13 = sitofp i32 %12 to double
  %14 = tail call double @sqrt(double %2) #9
  %15 = fcmp ult double %14, %13
  br i1 %15, label %16, label %5, !llvm.loop !5

16:                                               ; preds = %5, %1
  %17 = phi i32 [ 0, %1 ], [ %11, %5 ]
  ret i32 %17
}

; Function Attrs: argmemonly mustprogress nofree nosync nounwind willreturn
declare void @llvm.lifetime.start.p0i8(i64 immarg, i8* nocapture) #4

; Function Attrs: argmemonly mustprogress nofree nosync nounwind willreturn
declare void @llvm.lifetime.end.p0i8(i64 immarg, i8* nocapture) #4

; Function Attrs: mustprogress norecurse sspstrong uwtable
define dso_local i32 @main() local_unnamed_addr #5 {
  %1 = alloca i32, align 4
  %2 = bitcast i32* %1 to i8*
  call void @llvm.lifetime.start.p0i8(i64 4, i8* nonnull %2) #9
  %3 = call nonnull align 8 dereferenceable(16) %"class.std::basic_istream"* @_ZNSirsERi(%"class.std::basic_istream"* nonnull align 8 dereferenceable(16) @_ZSt3cin, i32* nonnull align 4 dereferenceable(4) %1)
  %4 = load i32, i32* %1, align 4, !tbaa !7
  %5 = icmp slt i32 %4, 4
  br i1 %5, label %83, label %6

6:                                                ; preds = %0, %78
  %7 = phi i32 [ %79, %78 ], [ 2, %0 ]
  %8 = sitofp i32 %7 to double
  %9 = call double @sqrt(double %8) #9
  %10 = fcmp ult double %9, 2.000000e+00
  br i1 %10, label %24, label %11

11:                                               ; preds = %6, %11
  %12 = phi i32 [ %17, %11 ], [ 0, %6 ]
  %13 = phi i32 [ %18, %11 ], [ 2, %6 ]
  %14 = urem i32 %7, %13
  %15 = icmp eq i32 %14, 0
  %16 = zext i1 %15 to i32
  %17 = add nuw nsw i32 %12, %16
  %18 = add nuw nsw i32 %13, 1
  %19 = sitofp i32 %18 to double
  %20 = call double @sqrt(double %8) #9
  %21 = fcmp ult double %20, %19
  br i1 %21, label %22, label %11, !llvm.loop !5

22:                                               ; preds = %11
  %23 = icmp eq i32 %17, 0
  br i1 %23, label %24, label %78

24:                                               ; preds = %6, %22
  %25 = load i32, i32* %1, align 4, !tbaa !7
  %26 = sub nsw i32 %25, %7
  %27 = sitofp i32 %26 to double
  %28 = call double @sqrt(double %27) #9
  %29 = fcmp ult double %28, 2.000000e+00
  br i1 %29, label %43, label %30

30:                                               ; preds = %24, %30
  %31 = phi i32 [ %36, %30 ], [ 0, %24 ]
  %32 = phi i32 [ %37, %30 ], [ 2, %24 ]
  %33 = srem i32 %26, %32
  %34 = icmp eq i32 %33, 0
  %35 = zext i1 %34 to i32
  %36 = add nuw nsw i32 %31, %35
  %37 = add nuw nsw i32 %32, 1
  %38 = sitofp i32 %37 to double
  %39 = call double @sqrt(double %27) #9
  %40 = fcmp ult double %39, %38
  br i1 %40, label %41, label %30, !llvm.loop !5

41:                                               ; preds = %30
  %42 = icmp eq i32 %36, 0
  br i1 %42, label %43, label %78

43:                                               ; preds = %24, %41
  %44 = call nonnull align 8 dereferenceable(8) %"class.std::basic_ostream"* @_ZNSolsEi(%"class.std::basic_ostream"* nonnull align 8 dereferenceable(8) @_ZSt4cout, i32 %7)
  %45 = call nonnull align 8 dereferenceable(8) %"class.std::basic_ostream"* @_ZSt16__ostream_insertIcSt11char_traitsIcEERSt13basic_ostreamIT_T0_ES6_PKS3_l(%"class.std::basic_ostream"* nonnull align 8 dereferenceable(8) %44, i8* nonnull getelementptr inbounds ([2 x i8], [2 x i8]* @.str, i64 0, i64 0), i64 1)
  %46 = load i32, i32* %1, align 4, !tbaa !7
  %47 = sub nsw i32 %46, %7
  %48 = call nonnull align 8 dereferenceable(8) %"class.std::basic_ostream"* @_ZNSolsEi(%"class.std::basic_ostream"* nonnull align 8 dereferenceable(8) %44, i32 %47)
  %49 = bitcast %"class.std::basic_ostream"* %48 to i8**
  %50 = load i8*, i8** %49, align 8, !tbaa !11
  %51 = getelementptr i8, i8* %50, i64 -24
  %52 = bitcast i8* %51 to i64*
  %53 = load i64, i64* %52, align 8
  %54 = bitcast %"class.std::basic_ostream"* %48 to i8*
  %55 = add nsw i64 %53, 240
  %56 = getelementptr inbounds i8, i8* %54, i64 %55
  %57 = bitcast i8* %56 to %"class.std::ctype"**
  %58 = load %"class.std::ctype"*, %"class.std::ctype"** %57, align 8, !tbaa !13
  %59 = icmp eq %"class.std::ctype"* %58, null
  br i1 %59, label %60, label %61

60:                                               ; preds = %43
  call void @_ZSt16__throw_bad_castv() #10
  unreachable

61:                                               ; preds = %43
  %62 = getelementptr inbounds %"class.std::ctype", %"class.std::ctype"* %58, i64 0, i32 8
  %63 = load i8, i8* %62, align 8, !tbaa !17
  %64 = icmp eq i8 %63, 0
  br i1 %64, label %68, label %65

65:                                               ; preds = %61
  %66 = getelementptr inbounds %"class.std::ctype", %"class.std::ctype"* %58, i64 0, i32 9, i64 10
  %67 = load i8, i8* %66, align 1, !tbaa !19
  br label %74

68:                                               ; preds = %61
  call void @_ZNKSt5ctypeIcE13_M_widen_initEv(%"class.std::ctype"* nonnull align 8 dereferenceable(570) %58)
  %69 = bitcast %"class.std::ctype"* %58 to i8 (%"class.std::ctype"*, i8)***
  %70 = load i8 (%"class.std::ctype"*, i8)**, i8 (%"class.std::ctype"*, i8)*** %69, align 8, !tbaa !11
  %71 = getelementptr inbounds i8 (%"class.std::ctype"*, i8)*, i8 (%"class.std::ctype"*, i8)** %70, i64 6
  %72 = load i8 (%"class.std::ctype"*, i8)*, i8 (%"class.std::ctype"*, i8)** %71, align 8
  %73 = call signext i8 %72(%"class.std::ctype"* nonnull align 8 dereferenceable(570) %58, i8 signext 10)
  br label %74

74:                                               ; preds = %65, %68
  %75 = phi i8 [ %67, %65 ], [ %73, %68 ]
  %76 = call nonnull align 8 dereferenceable(8) %"class.std::basic_ostream"* @_ZNSo3putEc(%"class.std::basic_ostream"* nonnull align 8 dereferenceable(8) %48, i8 signext %75)
  %77 = call nonnull align 8 dereferenceable(8) %"class.std::basic_ostream"* @_ZNSo5flushEv(%"class.std::basic_ostream"* nonnull align 8 dereferenceable(8) %76)
  br label %78

78:                                               ; preds = %22, %41, %74
  %79 = add nuw nsw i32 %7, 1
  %80 = load i32, i32* %1, align 4, !tbaa !7
  %81 = sdiv i32 %80, 2
  %82 = icmp slt i32 %7, %81
  br i1 %82, label %6, label %83, !llvm.loop !20

83:                                               ; preds = %78, %0
  call void @llvm.lifetime.end.p0i8(i64 4, i8* nonnull %2) #9
  ret i32 0
}

declare nonnull align 8 dereferenceable(16) %"class.std::basic_istream"* @_ZNSirsERi(%"class.std::basic_istream"* nonnull align 8 dereferenceable(16), i32* nonnull align 4 dereferenceable(4)) local_unnamed_addr #0

declare nonnull align 8 dereferenceable(8) %"class.std::basic_ostream"* @_ZNSolsEi(%"class.std::basic_ostream"* nonnull align 8 dereferenceable(8), i32) local_unnamed_addr #0

; Function Attrs: mustprogress nofree nounwind willreturn
declare double @sqrt(double) local_unnamed_addr #6

declare nonnull align 8 dereferenceable(8) %"class.std::basic_ostream"* @_ZSt16__ostream_insertIcSt11char_traitsIcEERSt13basic_ostreamIT_T0_ES6_PKS3_l(%"class.std::basic_ostream"* nonnull align 8 dereferenceable(8), i8*, i64) local_unnamed_addr #0

declare nonnull align 8 dereferenceable(8) %"class.std::basic_ostream"* @_ZNSo3putEc(%"class.std::basic_ostream"* nonnull align 8 dereferenceable(8), i8 signext) local_unnamed_addr #0

declare nonnull align 8 dereferenceable(8) %"class.std::basic_ostream"* @_ZNSo5flushEv(%"class.std::basic_ostream"* nonnull align 8 dereferenceable(8)) local_unnamed_addr #0

; Function Attrs: noreturn
declare void @_ZSt16__throw_bad_castv() local_unnamed_addr #7

declare void @_ZNKSt5ctypeIcE13_M_widen_initEv(%"class.std::ctype"* nonnull align 8 dereferenceable(570)) local_unnamed_addr #0

; Function Attrs: sspstrong uwtable
define internal void @_GLOBAL__sub_I_1437.cpp() #8 section ".text.startup" {
  tail call void @_ZNSt8ios_base4InitC1Ev(%"class.std::ios_base::Init"* nonnull align 1 dereferenceable(1) @_ZStL8__ioinit)
  %1 = tail call i32 @__cxa_atexit(void (i8*)* bitcast (void (%"class.std::ios_base::Init"*)* @_ZNSt8ios_base4InitD1Ev to void (i8*)*), i8* getelementptr inbounds (%"class.std::ios_base::Init", %"class.std::ios_base::Init"* @_ZStL8__ioinit, i64 0, i32 0), i8* nonnull @__dso_handle) #9
  ret void
}


!llvm.module.flags = !{!0, !1, !2, !3}
!llvm.ident = !{!4}

!0 = !{i32 1, !"wchar_size", i32 4}
!1 = !{i32 7, !"PIC Level", i32 2}
!2 = !{i32 7, !"PIE Level", i32 2}
!3 = !{i32 7, !"uwtable", i32 1}
!4 = !{!"clang version 13.0.0"}
!5 = distinct !{!5, !6}
!6 = !{!"llvm.loop.mustprogress"}
!7 = !{!8, !8, i64 0}
!8 = !{!"int", !9, i64 0}
!9 = !{!"omnipotent char", !10, i64 0}
!10 = !{!"Simple C++ TBAA"}
!11 = !{!12, !12, i64 0}
!12 = !{!"vtable pointer", !10, i64 0}
!13 = !{!14, !15, i64 240}
!14 = !{!"_ZTSSt9basic_iosIcSt11char_traitsIcEE", !15, i64 216, !9, i64 224, !16, i64 225, !15, i64 232, !15, i64 240, !15, i64 248, !15, i64 256}
!15 = !{!"any pointer", !9, i64 0}
!16 = !{!"bool", !9, i64 0}
!17 = !{!18, !9, i64 56}
!18 = !{!"_ZTSSt5ctypeIcE", !15, i64 16, !16, i64 24, !15, i64 32, !15, i64 40, !15, i64 48, !9, i64 56, !9, i64 57, !9, i64 313, !9, i64 569}
!19 = !{!9, !9, i64 0}
!20 = distinct !{!20, !6}
